; Function Attrs: mustprogress nofree norecurse nosync nounwind willreturn memory(read, argmem: readwrite, inaccessiblemem: none) uwtable
define hidden void @_ZN5State23_sub_Op_VectorLoadConstEPK4Node(ptr nocapture noundef nonnull align 8 dereferenceable(1920) %0, ptr nocapture noundef readnone %1) local_unnamed_addr #1 align 2 {
  %3 = getelementptr inbounds i8, ptr %0, i64 1904
  %4 = load ptr, ptr %3, align 8
  %.not = icmp eq ptr %4, null
  br i1 %.not, label %18, label %5

5:                                                ; preds = %2
  %6 = getelementptr inbounds i8, ptr %4, i64 1278
  %7 = load i16, ptr %6, align 2
  %8 = and i16 %7, 1
  %.not2 = icmp eq i16 %8, 0
  br i1 %.not2, label %18, label %9

9:                                                ; preds = %5
  %10 = getelementptr inbounds i8, ptr %4, i64 36
  %11 = load i32, ptr %10, align 4
  %12 = getelementptr inbounds i8, ptr %0, i64 456
  %13 = getelementptr inbounds i8, ptr %0, i64 1488
  store i16 1071, ptr %13, align 8
  %14 = insertelement <2 x i32> poison, i32 %11, i64 0
  %15 = shufflevector <2 x i32> %14, <2 x i32> poison, <2 x i32> zeroinitializer
  %16 = add <2 x i32> %15, <i32 100, i32 200>
  store <2 x i32> %16, ptr %12, align 8
  %17 = getelementptr inbounds i8, ptr %0, i64 1490
  store i16 731, ptr %17, align 2
  br label %18

18:                                               ; preds = %9, %5, %2
  ret void
}